; ModuleID = 'source-C-CXX/51/4606.cpp'
source_filename = "source-C-CXX/51/4606.cpp"
target datalayout = "e-m:e-p270:32:32-p271:32:32-p272:64:64-i64:64-f80:128-n8:16:32:64-S128"
target triple = "x86_64-pc-linux-gnu"

%"class.std::ios_base::Init" = type { i8 }
%"class.std::basic_istream" = type { i32 (...)**, i64, %"class.std::basic_ios" }
%"class.std::basic_ios" = type { %"class.std::ios_base", %"class.std::basic_ostream"*, i8, i8, %"class.std::basic_streambuf"*, %"class.std::ctype"*, %"class.std::num_put"*, %"class.std::num_get"* }
%"class.std::ios_base" = type { i32 (...)**, i64, i64, i32, i32, i32, %"struct.std::ios_base::_Callback_list"*, %"struct.std::ios_base::_Words", [8 x %"struct.std::ios_base::_Words"], i32, %"struct.std::ios_base::_Words"*, %"class.std::locale" }
%"struct.std::ios_base::_Callback_list" = type { %"struct.std::ios_base::_Callback_list"*, void (i32, %"class.std::ios_base"*, i32)*, i32, i32 }
%"struct.std::ios_base::_Words" = type { i8*, i64 }
%"class.std::locale" = type { %"class.std::locale::_Impl"* }
%"class.std::locale::_Impl" = type { i32, %"class.std::locale::facet"**, i64, %"class.std::locale::facet"**, i8** }
%"class.std::locale::facet" = type <{ i32 (...)**, i32, [4 x i8] }>
%"class.std::basic_ostream" = type { i32 (...)**, %"class.std::basic_ios" }
%"class.std::basic_streambuf" = type { i32 (...)**, i8*, i8*, i8*, i8*, i8*, i8*, %"class.std::locale" }
%"class.std::ctype" = type <{ %"class.std::locale::facet.base", [4 x i8], %struct.__locale_struct*, i8, [7 x i8], i32*, i32*, i16*, i8, [256 x i8], [256 x i8], i8, [6 x i8] }>
%"class.std::locale::facet.base" = type <{ i32 (...)**, i32 }>
%struct.__locale_struct = type { [13 x %struct.__locale_data*], i16*, i32*, i32*, [13 x i8*] }
%struct.__locale_data = type opaque
%"class.std::num_put" = type { %"class.std::locale::facet.base", [4 x i8] }
%"class.std::num_get" = type { %"class.std::locale::facet.base", [4 x i8] }

@_ZStL8__ioinit = internal global %"class.std::ios_base::Init" zeroinitializer, align 1
@__dso_handle = external hidden global i8
@_ZSt3cin = external global %"class.std::basic_istream", align 8
@_ZSt4cout = external global %"class.std::basic_ostream", align 8
@llvm.global_ctors = appending global [1 x { i32, void ()*, i8* }] [{ i32, void ()*, i8* } { i32 65535, void ()* @_GLOBAL__sub_I_4606.cpp, i8* null }]

declare void @_ZNSt8ios_base4InitC1Ev(%"class.std::ios_base::Init"* nonnull align 1 dereferenceable(1)) unnamed_addr #0

; Function Attrs: nounwind
declare void @_ZNSt8ios_base4InitD1Ev(%"class.std::ios_base::Init"* nonnull align 1 dereferenceable(1)) unnamed_addr #1

; Function Attrs: nofree nounwind
declare i32 @__cxa_atexit(void (i8*)*, i8*, i8*) local_unnamed_addr #2

; Function Attrs: mustprogress norecurse sspstrong uwtable
define dso_local i32 @main() local_unnamed_addr #3 {
  %1 = alloca i8, align 1
  %2 = alloca [200 x i32], align 16
  %3 = alloca i32, align 4
  %4 = alloca i32, align 4
  %5 = bitcast [200 x i32]* %2 to i8*
  call void @llvm.lifetime.start.p0i8(i64 800, i8* nonnull %5) #6
  %6 = bitcast i32* %3 to i8*
  call void @llvm.lifetime.start.p0i8(i64 4, i8* nonnull %6) #6
  %7 = bitcast i32* %4 to i8*
  call void @llvm.lifetime.start.p0i8(i64 4, i8* nonnull %7) #6
  %8 = call nonnull align 8 dereferenceable(16) %"class.std::basic_istream"* @_ZNSirsERi(%"class.std::basic_istream"* nonnull align 8 dereferenceable(16) @_ZSt3cin, i32* nonnull align 4 dereferenceable(4) %3)
  %9 = call nonnull align 8 dereferenceable(16) %"class.std::basic_istream"* @_ZNSirsERi(%"class.std::basic_istream"* nonnull align 8 dereferenceable(16) @_ZSt3cin, i32* nonnull align 4 dereferenceable(4) %4)
  %10 = load i32, i32* %3, align 4, !tbaa !5
  %11 = icmp sgt i32 %10, 0
  br i1 %11, label %12, label %20

12:                                               ; preds = %0, %12
  %13 = phi i64 [ %16, %12 ], [ 0, %0 ]
  %14 = getelementptr inbounds [200 x i32], [200 x i32]* %2, i64 0, i64 %13
  %15 = call nonnull align 8 dereferenceable(16) %"class.std::basic_istream"* @_ZNSirsERi(%"class.std::basic_istream"* nonnull align 8 dereferenceable(16) @_ZSt3cin, i32* nonnull align 4 dereferenceable(4) %14)
  %16 = add nuw nsw i64 %13, 1
  %17 = load i32, i32* %3, align 4, !tbaa !5
  %18 = sext i32 %17 to i64
  %19 = icmp slt i64 %16, %18
  br i1 %19, label %12, label %20, !llvm.loop !9

20:                                               ; preds = %12, %0
  %21 = phi i32 [ %10, %0 ], [ %17, %12 ]
  %22 = sext i32 %21 to i64
  %23 = getelementptr inbounds [200 x i32], [200 x i32]* %2, i64 0, i64 %22
  %24 = load i32, i32* %4, align 4, !tbaa !5
  %25 = sext i32 %24 to i64
  %26 = sub nsw i64 0, %25
  %27 = getelementptr inbounds i32, i32* %23, i64 %26
  %28 = icmp slt i32 %21, %24
  br i1 %28, label %146, label %29

29:                                               ; preds = %20
  %30 = add i32 %21, 1
  %31 = sub i32 %30, %24
  %32 = zext i32 %31 to i64
  %33 = icmp ult i32 %31, 8
  br i1 %33, label %127, label %34

34:                                               ; preds = %29
  %35 = getelementptr [200 x i32], [200 x i32]* %2, i64 0, i64 %22
  %36 = add nsw i64 %22, %32
  %37 = getelementptr [200 x i32], [200 x i32]* %2, i64 0, i64 %36
  %38 = getelementptr [200 x i32], [200 x i32]* %2, i64 0, i64 %32
  %39 = icmp ult i32* %35, %38
  %40 = bitcast i32* %37 to [200 x i32]*
  %41 = icmp ult [200 x i32]* %2, %40
  %42 = and i1 %39, %41
  br i1 %42, label %127, label %43

43:                                               ; preds = %34
  %44 = and i64 %32, 4294967288
  %45 = add nsw i64 %44, -8
  %46 = lshr exact i64 %45, 3
  %47 = add nuw nsw i64 %46, 1
  %48 = and i64 %47, 3
  %49 = icmp ult i64 %45, 24
  br i1 %49, label %105, label %50

50:                                               ; preds = %43
  %51 = and i64 %47, 4611686018427387900
  br label %52

52:                                               ; preds = %52, %50
  %53 = phi i64 [ 0, %50 ], [ %102, %52 ]
  %54 = phi i64 [ %51, %50 ], [ %103, %52 ]
  %55 = getelementptr inbounds [200 x i32], [200 x i32]* %2, i64 0, i64 %53
  %56 = bitcast i32* %55 to <4 x i32>*
  %57 = load <4 x i32>, <4 x i32>* %56, align 16, !tbaa !5, !alias.scope !11
  %58 = getelementptr inbounds i32, i32* %55, i64 4
  %59 = bitcast i32* %58 to <4 x i32>*
  %60 = load <4 x i32>, <4 x i32>* %59, align 16, !tbaa !5, !alias.scope !11
  %61 = add nsw i64 %53, %22
  %62 = getelementptr inbounds [200 x i32], [200 x i32]* %2, i64 0, i64 %61
  %63 = bitcast i32* %62 to <4 x i32>*
  store <4 x i32> %57, <4 x i32>* %63, align 4, !tbaa !5, !alias.scope !14, !noalias !11
  %64 = getelementptr inbounds i32, i32* %62, i64 4
  %65 = bitcast i32* %64 to <4 x i32>*
  store <4 x i32> %60, <4 x i32>* %65, align 4, !tbaa !5, !alias.scope !14, !noalias !11
  %66 = or i64 %53, 8
  %67 = getelementptr inbounds [200 x i32], [200 x i32]* %2, i64 0, i64 %66
  %68 = bitcast i32* %67 to <4 x i32>*
  %69 = load <4 x i32>, <4 x i32>* %68, align 16, !tbaa !5, !alias.scope !11
  %70 = getelementptr inbounds i32, i32* %67, i64 4
  %71 = bitcast i32* %70 to <4 x i32>*
  %72 = load <4 x i32>, <4 x i32>* %71, align 16, !tbaa !5, !alias.scope !11
  %73 = add nsw i64 %66, %22
  %74 = getelementptr inbounds [200 x i32], [200 x i32]* %2, i64 0, i64 %73
  %75 = bitcast i32* %74 to <4 x i32>*
  store <4 x i32> %69, <4 x i32>* %75, align 4, !tbaa !5, !alias.scope !14, !noalias !11
  %76 = getelementptr inbounds i32, i32* %74, i64 4
  %77 = bitcast i32* %76 to <4 x i32>*
  store <4 x i32> %72, <4 x i32>* %77, align 4, !tbaa !5, !alias.scope !14, !noalias !11
  %78 = or i64 %53, 16
  %79 = getelementptr inbounds [200 x i32], [200 x i32]* %2, i64 0, i64 %78
  %80 = bitcast i32* %79 to <4 x i32>*
  %81 = load <4 x i32>, <4 x i32>* %80, align 16, !tbaa !5, !alias.scope !11
  %82 = getelementptr inbounds i32, i32* %79, i64 4
  %83 = bitcast i32* %82 to <4 x i32>*
  %84 = load <4 x i32>, <4 x i32>* %83, align 16, !tbaa !5, !alias.scope !11
  %85 = add nsw i64 %78, %22
  %86 = getelementptr inbounds [200 x i32], [200 x i32]* %2, i64 0, i64 %85
  %87 = bitcast i32* %86 to <4 x i32>*
  store <4 x i32> %81, <4 x i32>* %87, align 4, !tbaa !5, !alias.scope !14, !noalias !11
  %88 = getelementptr inbounds i32, i32* %86, i64 4
  %89 = bitcast i32* %88 to <4 x i32>*
  store <4 x i32> %84, <4 x i32>* %89, align 4, !tbaa !5, !alias.scope !14, !noalias !11
  %90 = or i64 %53, 24
  %91 = getelementptr inbounds [200 x i32], [200 x i32]* %2, i64 0, i64 %90
  %92 = bitcast i32* %91 to <4 x i32>*
  %93 = load <4 x i32>, <4 x i32>* %92, align 16, !tbaa !5, !alias.scope !11
  %94 = getelementptr inbounds i32, i32* %91, i64 4
  %95 = bitcast i32* %94 to <4 x i32>*
  %96 = load <4 x i32>, <4 x i32>* %95, align 16, !tbaa !5, !alias.scope !11
  %97 = add nsw i64 %90, %22
  %98 = getelementptr inbounds [200 x i32], [200 x i32]* %2, i64 0, i64 %97
  %99 = bitcast i32* %98 to <4 x i32>*
  store <4 x i32> %93, <4 x i32>* %99, align 4, !tbaa !5, !alias.scope !14, !noalias !11
  %100 = getelementptr inbounds i32, i32* %98, i64 4
  %101 = bitcast i32* %100 to <4 x i32>*
  store <4 x i32> %96, <4 x i32>* %101, align 4, !tbaa !5, !alias.scope !14, !noalias !11
  %102 = add nuw i64 %53, 32
  %103 = add i64 %54, -4
  %104 = icmp eq i64 %103, 0
  br i1 %104, label %105, label %52, !llvm.loop !16

105:                                              ; preds = %52, %43
  %106 = phi i64 [ 0, %43 ], [ %102, %52 ]
  %107 = icmp eq i64 %48, 0
  br i1 %107, label %125, label %108

108:                                              ; preds = %105, %108
  %109 = phi i64 [ %122, %108 ], [ %106, %105 ]
  %110 = phi i64 [ %123, %108 ], [ %48, %105 ]
  %111 = getelementptr inbounds [200 x i32], [200 x i32]* %2, i64 0, i64 %109
  %112 = bitcast i32* %111 to <4 x i32>*
  %113 = load <4 x i32>, <4 x i32>* %112, align 16, !tbaa !5, !alias.scope !11
  %114 = getelementptr inbounds i32, i32* %111, i64 4
  %115 = bitcast i32* %114 to <4 x i32>*
  %116 = load <4 x i32>, <4 x i32>* %115, align 16, !tbaa !5, !alias.scope !11
  %117 = add nsw i64 %109, %22
  %118 = getelementptr inbounds [200 x i32], [200 x i32]* %2, i64 0, i64 %117
  %119 = bitcast i32* %118 to <4 x i32>*
  store <4 x i32> %113, <4 x i32>* %119, align 4, !tbaa !5, !alias.scope !14, !noalias !11
  %120 = getelementptr inbounds i32, i32* %118, i64 4
  %121 = bitcast i32* %120 to <4 x i32>*
  store <4 x i32> %116, <4 x i32>* %121, align 4, !tbaa !5, !alias.scope !14, !noalias !11
  %122 = add nuw i64 %109, 8
  %123 = add i64 %110, -1
  %124 = icmp eq i64 %123, 0
  br i1 %124, label %125, label %108, !llvm.loop !18

125:                                              ; preds = %108, %105
  %126 = icmp eq i64 %44, %32
  br i1 %126, label %146, label %127

127:                                              ; preds = %34, %29, %125
  %128 = phi i64 [ 0, %34 ], [ 0, %29 ], [ %44, %125 ]
  %129 = xor i64 %128, -1
  %130 = add nsw i64 %129, %32
  %131 = and i64 %32, 3
  %132 = icmp eq i64 %131, 0
  br i1 %132, label %143, label %133

133:                                              ; preds = %127, %133
  %134 = phi i64 [ %140, %133 ], [ %128, %127 ]
  %135 = phi i64 [ %141, %133 ], [ %131, %127 ]
  %136 = getelementptr inbounds [200 x i32], [200 x i32]* %2, i64 0, i64 %134
  %137 = load i32, i32* %136, align 4, !tbaa !5
  %138 = add nsw i64 %134, %22
  %139 = getelementptr inbounds [200 x i32], [200 x i32]* %2, i64 0, i64 %138
  store i32 %137, i32* %139, align 4, !tbaa !5
  %140 = add nuw nsw i64 %134, 1
  %141 = add i64 %135, -1
  %142 = icmp eq i64 %141, 0
  br i1 %142, label %143, label %133, !llvm.loop !20

143:                                              ; preds = %133, %127
  %144 = phi i64 [ %128, %127 ], [ %140, %133 ]
  %145 = icmp ult i64 %130, 3
  br i1 %145, label %146, label %148

146:                                              ; preds = %143, %148, %125, %20
  %147 = icmp slt i32 %21, 2
  br i1 %147, label %184, label %171

148:                                              ; preds = %143, %148
  %149 = phi i64 [ %169, %148 ], [ %144, %143 ]
  %150 = getelementptr inbounds [200 x i32], [200 x i32]* %2, i64 0, i64 %149
  %151 = load i32, i32* %150, align 4, !tbaa !5
  %152 = add nsw i64 %149, %22
  %153 = getelementptr inbounds [200 x i32], [200 x i32]* %2, i64 0, i64 %152
  store i32 %151, i32* %153, align 4, !tbaa !5
  %154 = add nuw nsw i64 %149, 1
  %155 = getelementptr inbounds [200 x i32], [200 x i32]* %2, i64 0, i64 %154
  %156 = load i32, i32* %155, align 4, !tbaa !5
  %157 = add nsw i64 %154, %22
  %158 = getelementptr inbounds [200 x i32], [200 x i32]* %2, i64 0, i64 %157
  store i32 %156, i32* %158, align 4, !tbaa !5
  %159 = add nuw nsw i64 %149, 2
  %160 = getelementptr inbounds [200 x i32], [200 x i32]* %2, i64 0, i64 %159
  %161 = load i32, i32* %160, align 4, !tbaa !5
  %162 = add nsw i64 %159, %22
  %163 = getelementptr inbounds [200 x i32], [200 x i32]* %2, i64 0, i64 %162
  store i32 %161, i32* %163, align 4, !tbaa !5
  %164 = add nuw nsw i64 %149, 3
  %165 = getelementptr inbounds [200 x i32], [200 x i32]* %2, i64 0, i64 %164
  %166 = load i32, i32* %165, align 4, !tbaa !5
  %167 = add nsw i64 %164, %22
  %168 = getelementptr inbounds [200 x i32], [200 x i32]* %2, i64 0, i64 %167
  store i32 %166, i32* %168, align 4, !tbaa !5
  %169 = add nuw nsw i64 %149, 4
  %170 = icmp eq i64 %169, %32
  br i1 %170, label %146, label %148, !llvm.loop !21

171:                                              ; preds = %146, %171
  %172 = phi i64 [ %177, %171 ], [ 0, %146 ]
  %173 = getelementptr inbounds i32, i32* %27, i64 %172
  %174 = load i32, i32* %173, align 4, !tbaa !5
  %175 = call nonnull align 8 dereferenceable(8) %"class.std::basic_ostream"* @_ZNSolsEi(%"class.std::basic_ostream"* nonnull align 8 dereferenceable(8) @_ZSt4cout, i32 %174)
  call void @llvm.lifetime.start.p0i8(i64 1, i8* nonnull %1)
  store i8 32, i8* %1, align 1, !tbaa !22
  %176 = call nonnull align 8 dereferenceable(8) %"class.std::basic_ostream"* @_ZSt16__ostream_insertIcSt11char_traitsIcEERSt13basic_ostreamIT_T0_ES6_PKS3_l(%"class.std::basic_ostream"* nonnull align 8 dereferenceable(8) %175, i8* nonnull %1, i64 1)
  call void @llvm.lifetime.end.p0i8(i64 1, i8* nonnull %1)
  %177 = add nuw nsw i64 %172, 1
  %178 = load i32, i32* %3, align 4, !tbaa !5
  %179 = add nsw i32 %178, -2
  %180 = sext i32 %179 to i64
  %181 = icmp slt i64 %172, %180
  br i1 %181, label %171, label %182, !llvm.loop !23

182:                                              ; preds = %171
  %183 = sext i32 %178 to i64
  br label %184

184:                                              ; preds = %182, %146
  %185 = phi i64 [ %183, %182 ], [ %22, %146 ]
  %186 = add nsw i64 %185, -1
  %187 = getelementptr inbounds i32, i32* %27, i64 %186
  %188 = load i32, i32* %187, align 4, !tbaa !5
  %189 = call nonnull align 8 dereferenceable(8) %"class.std::basic_ostream"* @_ZNSolsEi(%"class.std::basic_ostream"* nonnull align 8 dereferenceable(8) @_ZSt4cout, i32 %188)
  call void @llvm.lifetime.end.p0i8(i64 4, i8* nonnull %7) #6
  call void @llvm.lifetime.end.p0i8(i64 4, i8* nonnull %6) #6
  call void @llvm.lifetime.end.p0i8(i64 800, i8* nonnull %5) #6
  ret i32 0
}

; Function Attrs: argmemonly mustprogress nofree nosync nounwind willreturn
declare void @llvm.lifetime.start.p0i8(i64 immarg, i8* nocapture) #4

declare nonnull align 8 dereferenceable(16) %"class.std::basic_istream"* @_ZNSirsERi(%"class.std::basic_istream"* nonnull align 8 dereferenceable(16), i32* nonnull align 4 dereferenceable(4)) local_unnamed_addr #0

declare nonnull align 8 dereferenceable(8) %"class.std::basic_ostream"* @_ZNSolsEi(%"class.std::basic_ostream"* nonnull align 8 dereferenceable(8), i32) local_unnamed_addr #0

; Function Attrs: argmemonly mustprogress nofree nosync nounwind willreturn
declare void @llvm.lifetime.end.p0i8(i64 immarg, i8* nocapture) #4

declare nonnull align 8 dereferenceable(8) %"class.std::basic_ostream"* @_ZSt16__ostream_insertIcSt11char_traitsIcEERSt13basic_ostreamIT_T0_ES6_PKS3_l(%"class.std::basic_ostream"* nonnull align 8 dereferenceable(8), i8*, i64) local_unnamed_addr #0

; Function Attrs: sspstrong uwtable
define internal void @_GLOBAL__sub_I_4606.cpp() #5 section ".text.startup" {
  tail call void @_ZNSt8ios_base4InitC1Ev(%"class.std::ios_base::Init"* nonnull align 1 dereferenceable(1) @_ZStL8__ioinit)
  %1 = tail call i32 @__cxa_atexit(void (i8*)* bitcast (void (%"class.std::ios_base::Init"*)* @_ZNSt8ios_base4InitD1Ev to void (i8*)*), i8* getelementptr inbounds (%"class.std::ios_base::Init", %"class.std::ios_base::Init"* @_ZStL8__ioinit, i64 0, i32 0), i8* nonnull @__dso_handle) #6
  ret void
}


!llvm.module.flags = !{!0, !1, !2, !3}
!llvm.ident = !{!4}

!0 = !{i32 1, !"wchar_size", i32 4}
!1 = !{i32 7, !"PIC Level", i32 2}
!2 = !{i32 7, !"PIE Level", i32 2}
!3 = !{i32 7, !"uwtable", i32 1}
!4 = !{!"clang version 13.0.0"}
!5 = !{!6, !6, i64 0}
!6 = !{!"int", !7, i64 0}
!7 = !{!"omnipotent char", !8, i64 0}
!8 = !{!"Simple C++ TBAA"}
!9 = distinct !{!9, !10}
!10 = !{!"llvm.loop.mustprogress"}
!11 = !{!12}
!12 = distinct !{!12, !13}
!13 = distinct !{!13, !"LVerDomain"}
!14 = !{!15}
!15 = distinct !{!15, !13}
!16 = distinct !{!16, !10, !17}
!17 = !{!"llvm.loop.isvectorized", i32 1}
!18 = distinct !{!18, !19}
!19 = !{!"llvm.loop.unroll.disable"}
!20 = distinct !{!20, !19}
!21 = distinct !{!21, !10, !17}
!22 = !{!7, !7, i64 0}
!23 = distinct !{!23, !10}
